target datalayout = "e-m:e-p270:32:32-p271:32:32-p272:64:64-i64:64-i128:128-f80:128-n8:16:32:64-S128"
target triple = "x86_64-pc-linux-gnu"

%struct.ARKodeMemRec = type { ptr, double, ptr, i32, i32, double, double, ptr, i32, double, ptr, i32, i32, ptr, ptr, i32, ptr, ptr, i32, ptr, ptr, ptr, ptr, ptr, ptr, ptr, ptr, ptr, ptr, ptr, ptr, ptr, ptr, ptr, i32, ptr, ptr, i32, ptr, i32, ptr, ptr, ptr, ptr, ptr, ptr, ptr, ptr, ptr, ptr, ptr, ptr, ptr, ptr, ptr, ptr, ptr, ptr, ptr, ptr, ptr, ptr, ptr, ptr, ptr, ptr, i32, ptr, ptr, ptr, ptr, ptr, ptr, ptr, i32, ptr, ptr, ptr, i32, ptr, ptr, ptr, ptr, ptr, ptr, ptr, i32, i32, i32, i32, double, double, double, double, double, double, double, double, double, double, i32, ptr, i64, i32, i32, i32, i32, i64, i64, i32, i64, i64, i64, i64, i64, i64, i64, double, double, double, double, double, i32, double, double, i32, i32, i32, i32, i32, i32, i32, i32, ptr, i32, ptr, ptr, ptr, ptr, i32, i32, i32 }

@__func__.ARKodeCreateSUNStepper = private unnamed_addr constant [23 x i8] c"ARKodeCreateSUNStepper\00", align 1
@.str = private unnamed_addr constant [126 x i8] c"generated/home/dtcxzyw/WorkSpace/Projects/compilers/llvm-opt-benchmark/bench/sundials/sundials/src/arkode/arkode_sunstepper.c\00", align 1
@.str.1 = private unnamed_addr constant [27 x i8] c"arkode_mem = NULL illegal.\00", align 1
@.str.2 = private unnamed_addr constant [28 x i8] c"Failed to create SUNStepper\00", align 1
@.str.3 = private unnamed_addr constant [33 x i8] c"Failed to set SUNStepper content\00", align 1
@.str.4 = private unnamed_addr constant [41 x i8] c"Failed to set SUNStepper evolve function\00", align 1
@.str.5 = private unnamed_addr constant [43 x i8] c"Failed to set SUNStepper one step function\00", align 1
@.str.6 = private unnamed_addr constant [43 x i8] c"Failed to set SUNStepper full RHS function\00", align 1
@.str.7 = private unnamed_addr constant [40 x i8] c"Failed to set SUNStepper reset function\00", align 1
@.str.8 = private unnamed_addr constant [44 x i8] c"Failed to set SUNStepper stop time function\00", align 1
@.str.9 = private unnamed_addr constant [42 x i8] c"Failed to set SUNStepper forcing function\00", align 1

; Function Attrs: nounwind uwtable
define i32 @ARKodeCreateSUNStepper(ptr noundef %0, ptr noundef %1) #0 {
  %3 = alloca i32, align 4
  %4 = alloca ptr, align 8
  %5 = alloca ptr, align 8
  %6 = alloca ptr, align 8
  %7 = alloca i32, align 4
  %8 = alloca i32, align 4
  store ptr %0, ptr %4, align 8, !tbaa !3
  store ptr %1, ptr %5, align 8, !tbaa !7
  %9 = load ptr, ptr %4, align 8, !tbaa !3
  %10 = icmp eq ptr %9, null
  br i1 %10, label %11, label %12

11:                                               ; preds = %2
  call void (ptr, i32, i32, ptr, ptr, ptr, ...) @arkProcessError(ptr noundef null, i32 noundef -21, i32 noundef 154, ptr noundef @__func__.ARKodeCreateSUNStepper, ptr noundef @.str, ptr noundef @.str.1)
  store i32 -21, ptr %3, align 4
  br label %95

12:                                               ; preds = %2
  call void @llvm.lifetime.start.p0(i64 8, ptr %6) #3
  %13 = load ptr, ptr %4, align 8, !tbaa !3
  store ptr %13, ptr %6, align 8, !tbaa !9
  call void @llvm.lifetime.start.p0(i64 4, ptr %7) #3
  %14 = load ptr, ptr %6, align 8, !tbaa !9
  %15 = getelementptr inbounds nuw %struct.ARKodeMemRec, ptr %14, i32 0, i32 0
  %16 = load ptr, ptr %15, align 8, !tbaa !11
  %17 = load ptr, ptr %5, align 8, !tbaa !7
  %18 = call i32 @SUNStepper_Create(ptr noundef %16, ptr noundef %17)
  store i32 %18, ptr %7, align 4, !tbaa !22
  %19 = load i32, ptr %7, align 4, !tbaa !22
  %20 = icmp ne i32 %19, 0
  br i1 %20, label %21, label %23

21:                                               ; preds = %12
  %22 = load ptr, ptr %6, align 8, !tbaa !9
  call void (ptr, i32, i32, ptr, ptr, ptr, ...) @arkProcessError(ptr noundef %22, i32 noundef -51, i32 noundef 163, ptr noundef @__func__.ARKodeCreateSUNStepper, ptr noundef @.str, ptr noundef @.str.2)
  store i32 -51, ptr %3, align 4
  store i32 1, ptr %8, align 4
  br label %94

23:                                               ; preds = %12
  %24 = load ptr, ptr %5, align 8, !tbaa !7
  %25 = load ptr, ptr %24, align 8, !tbaa !23
  %26 = load ptr, ptr %4, align 8, !tbaa !3
  %27 = call i32 @SUNStepper_SetContent(ptr noundef %25, ptr noundef %26)
  store i32 %27, ptr %7, align 4, !tbaa !22
  %28 = load i32, ptr %7, align 4, !tbaa !22
  %29 = icmp ne i32 %28, 0
  br i1 %29, label %30, label %32

30:                                               ; preds = %23
  %31 = load ptr, ptr %6, align 8, !tbaa !9
  call void (ptr, i32, i32, ptr, ptr, ptr, ...) @arkProcessError(ptr noundef %31, i32 noundef -51, i32 noundef 171, ptr noundef @__func__.ARKodeCreateSUNStepper, ptr noundef @.str, ptr noundef @.str.3)
  store i32 -51, ptr %3, align 4
  store i32 1, ptr %8, align 4
  br label %94

32:                                               ; preds = %23
  %33 = load ptr, ptr %5, align 8, !tbaa !7
  %34 = load ptr, ptr %33, align 8, !tbaa !23
  %35 = call i32 @SUNStepper_SetEvolveFn(ptr noundef %34, ptr noundef @arkSUNStepperEvolve)
  store i32 %35, ptr %7, align 4, !tbaa !22
  %36 = load i32, ptr %7, align 4, !tbaa !22
  %37 = icmp ne i32 %36, 0
  br i1 %37, label %38, label %40

38:                                               ; preds = %32
  %39 = load ptr, ptr %6, align 8, !tbaa !9
  call void (ptr, i32, i32, ptr, ptr, ptr, ...) @arkProcessError(ptr noundef %39, i32 noundef -51, i32 noundef 179, ptr noundef @__func__.ARKodeCreateSUNStepper, ptr noundef @.str, ptr noundef @.str.4)
  store i32 -51, ptr %3, align 4
  store i32 1, ptr %8, align 4
  br label %94

40:                                               ; preds = %32
  %41 = load ptr, ptr %5, align 8, !tbaa !7
  %42 = load ptr, ptr %41, align 8, !tbaa !23
  %43 = call i32 @SUNStepper_SetOneStepFn(ptr noundef %42, ptr noundef @arkSUNStepperOneStep)
  store i32 %43, ptr %7, align 4, !tbaa !22
  %44 = load i32, ptr %7, align 4, !tbaa !22
  %45 = icmp ne i32 %44, 0
  br i1 %45, label %46, label %48

46:                                               ; preds = %40
  %47 = load ptr, ptr %6, align 8, !tbaa !9
  call void (ptr, i32, i32, ptr, ptr, ptr, ...) @arkProcessError(ptr noundef %47, i32 noundef -51, i32 noundef 187, ptr noundef @__func__.ARKodeCreateSUNStepper, ptr noundef @.str, ptr noundef @.str.5)
  store i32 -51, ptr %3, align 4
  store i32 1, ptr %8, align 4
  br label %94

48:                                               ; preds = %40
  %49 = load ptr, ptr %5, align 8, !tbaa !7
  %50 = load ptr, ptr %49, align 8, !tbaa !23
  %51 = call i32 @SUNStepper_SetFullRhsFn(ptr noundef %50, ptr noundef @arkSUNStepperFullRhs)
  store i32 %51, ptr %7, align 4, !tbaa !22
  %52 = load i32, ptr %7, align 4, !tbaa !22
  %53 = icmp ne i32 %52, 0
  br i1 %53, label %54, label %56

54:                                               ; preds = %48
  %55 = load ptr, ptr %6, align 8, !tbaa !9
  call void (ptr, i32, i32, ptr, ptr, ptr, ...) @arkProcessError(ptr noundef %55, i32 noundef -51, i32 noundef 195, ptr noundef @__func__.ARKodeCreateSUNStepper, ptr noundef @.str, ptr noundef @.str.6)
  store i32 -51, ptr %3, align 4
  store i32 1, ptr %8, align 4
  br label %94

56:                                               ; preds = %48
  %57 = load ptr, ptr %5, align 8, !tbaa !7
  %58 = load ptr, ptr %57, align 8, !tbaa !23
  %59 = call i32 @SUNStepper_SetResetFn(ptr noundef %58, ptr noundef @arkSUNStepperReset)
  store i32 %59, ptr %7, align 4, !tbaa !22
  %60 = load i32, ptr %7, align 4, !tbaa !22
  %61 = icmp ne i32 %60, 0
  br i1 %61, label %62, label %64

62:                                               ; preds = %56
  %63 = load ptr, ptr %6, align 8, !tbaa !9
  call void (ptr, i32, i32, ptr, ptr, ptr, ...) @arkProcessError(ptr noundef %63, i32 noundef -51, i32 noundef 203, ptr noundef @__func__.ARKodeCreateSUNStepper, ptr noundef @.str, ptr noundef @.str.7)
  store i32 -51, ptr %3, align 4
  store i32 1, ptr %8, align 4
  br label %94

64:                                               ; preds = %56
  %65 = load ptr, ptr %5, align 8, !tbaa !7
  %66 = load ptr, ptr %65, align 8, !tbaa !23
  %67 = call i32 @SUNStepper_SetStopTimeFn(ptr noundef %66, ptr noundef @arkSUNStepperSetStopTime)
  store i32 %67, ptr %7, align 4, !tbaa !22
  %68 = load i32, ptr %7, align 4, !tbaa !22
  %69 = icmp ne i32 %68, 0
  br i1 %69, label %70, label %72

70:                                               ; preds = %64
  %71 = load ptr, ptr %6, align 8, !tbaa !9
  call void (ptr, i32, i32, ptr, ptr, ptr, ...) @arkProcessError(ptr noundef %71, i32 noundef -51, i32 noundef 211, ptr noundef @__func__.ARKodeCreateSUNStepper, ptr noundef @.str, ptr noundef @.str.8)
  store i32 -51, ptr %3, align 4
  store i32 1, ptr %8, align 4
  br label %94

72:                                               ; preds = %64
  %73 = load ptr, ptr %5, align 8, !tbaa !7
  %74 = load ptr, ptr %73, align 8, !tbaa !23
  %75 = call i32 @SUNStepper_SetStepDirectionFn(ptr noundef %74, ptr noundef @arkSUNStepperSetStepDirection)
  store i32 %75, ptr %7, align 4, !tbaa !22
  %76 = load i32, ptr %7, align 4, !tbaa !22
  %77 = icmp ne i32 %76, 0
  br i1 %77, label %78, label %79

78:                                               ; preds = %72
  store i32 -51, ptr %3, align 4
  store i32 1, ptr %8, align 4
  br label %94

79:                                               ; preds = %72
  %80 = load ptr, ptr %6, align 8, !tbaa !9
  %81 = getelementptr inbounds nuw %struct.ARKodeMemRec, ptr %80, i32 0, i32 71
  %82 = load ptr, ptr %81, align 8, !tbaa !25
  %83 = icmp ne ptr %82, null
  br i1 %83, label %84, label %93

84:                                               ; preds = %79
  %85 = load ptr, ptr %5, align 8, !tbaa !7
  %86 = load ptr, ptr %85, align 8, !tbaa !23
  %87 = call i32 @SUNStepper_SetForcingFn(ptr noundef %86, ptr noundef @arkSUNStepperSetForcing)
  store i32 %87, ptr %7, align 4, !tbaa !22
  %88 = load i32, ptr %7, align 4, !tbaa !22
  %89 = icmp ne i32 %88, 0
  br i1 %89, label %90, label %92

90:                                               ; preds = %84
  %91 = load ptr, ptr %6, align 8, !tbaa !9
  call void (ptr, i32, i32, ptr, ptr, ptr, ...) @arkProcessError(ptr noundef %91, i32 noundef -51, i32 noundef 224, ptr noundef @__func__.ARKodeCreateSUNStepper, ptr noundef @.str, ptr noundef @.str.9)
  store i32 -51, ptr %3, align 4
  store i32 1, ptr %8, align 4
  br label %94

92:                                               ; preds = %84
  br label %93

93:                                               ; preds = %92, %79
  store i32 0, ptr %3, align 4
  store i32 1, ptr %8, align 4
  br label %94

94:                                               ; preds = %93, %90, %78, %70, %62, %54, %46, %38, %30, %21
  call void @llvm.lifetime.end.p0(i64 4, ptr %7) #3
  call void @llvm.lifetime.end.p0(i64 8, ptr %6) #3
  br label %95

95:                                               ; preds = %94, %11
  %96 = load i32, ptr %3, align 4
  ret i32 %96
}