; Function Attrs: nounwind uwtable
define range(i32 -51, 1) i32 @ARKodeCreateSUNStepper(ptr noundef %0, ptr noundef %1) local_unnamed_addr #0 {
  %3 = icmp eq ptr %0, null
  br i1 %3, label %4, label %5

4:                                                ; preds = %2
  tail call void (ptr, i32, i32, ptr, ptr, ptr, ...) @arkProcessError(ptr noundef null, i32 noundef -21, i32 noundef 154, ptr noundef nonnull @__func__.ARKodeCreateSUNStepper, ptr noundef nonnull @.str, ptr noundef nonnull @.str.1) #3
  br label %43

5:                                                ; preds = %2
  %6 = load ptr, ptr %0, align 8, !tbaa !3
  %7 = tail call i32 @SUNStepper_Create(ptr noundef %6, ptr noundef %1) #3
  %.not = icmp eq i32 %7, 0
  br i1 %.not, label %9, label %8

8:                                                ; preds = %5
  tail call void (ptr, i32, i32, ptr, ptr, ptr, ...) @arkProcessError(ptr noundef nonnull %0, i32 noundef -51, i32 noundef 163, ptr noundef nonnull @__func__.ARKodeCreateSUNStepper, ptr noundef nonnull @.str, ptr noundef nonnull @.str.2) #3
  br label %43

9:                                                ; preds = %5
  %10 = load ptr, ptr %1, align 8, !tbaa !17
  %11 = tail call i32 @SUNStepper_SetContent(ptr noundef %10, ptr noundef nonnull %0) #3
  %.not32 = icmp eq i32 %11, 0
  br i1 %.not32, label %13, label %12

12:                                               ; preds = %9
  tail call void (ptr, i32, i32, ptr, ptr, ptr, ...) @arkProcessError(ptr noundef nonnull %0, i32 noundef -51, i32 noundef 171, ptr noundef nonnull @__func__.ARKodeCreateSUNStepper, ptr noundef nonnull @.str, ptr noundef nonnull @.str.3) #3
  br label %43

13:                                               ; preds = %9
  %14 = load ptr, ptr %1, align 8, !tbaa !17
  %15 = tail call i32 @SUNStepper_SetEvolveFn(ptr noundef %14, ptr noundef nonnull @arkSUNStepperEvolve) #3
  %.not33 = icmp eq i32 %15, 0
  br i1 %.not33, label %17, label %16

16:                                               ; preds = %13
  tail call void (ptr, i32, i32, ptr, ptr, ptr, ...) @arkProcessError(ptr noundef nonnull %0, i32 noundef -51, i32 noundef 179, ptr noundef nonnull @__func__.ARKodeCreateSUNStepper, ptr noundef nonnull @.str, ptr noundef nonnull @.str.4) #3
  br label %43

17:                                               ; preds = %13
  %18 = load ptr, ptr %1, align 8, !tbaa !17
  %19 = tail call i32 @SUNStepper_SetOneStepFn(ptr noundef %18, ptr noundef nonnull @arkSUNStepperOneStep) #3
  %.not34 = icmp eq i32 %19, 0
  br i1 %.not34, label %21, label %20

20:                                               ; preds = %17
  tail call void (ptr, i32, i32, ptr, ptr, ptr, ...) @arkProcessError(ptr noundef nonnull %0, i32 noundef -51, i32 noundef 187, ptr noundef nonnull @__func__.ARKodeCreateSUNStepper, ptr noundef nonnull @.str, ptr noundef nonnull @.str.5) #3
  br label %43

21:                                               ; preds = %17
  %22 = load ptr, ptr %1, align 8, !tbaa !17
  %23 = tail call i32 @SUNStepper_SetFullRhsFn(ptr noundef %22, ptr noundef nonnull @arkSUNStepperFullRhs) #3
  %.not35 = icmp eq i32 %23, 0
  br i1 %.not35, label %25, label %24

24:                                               ; preds = %21
  tail call void (ptr, i32, i32, ptr, ptr, ptr, ...) @arkProcessError(ptr noundef nonnull %0, i32 noundef -51, i32 noundef 195, ptr noundef nonnull @__func__.ARKodeCreateSUNStepper, ptr noundef nonnull @.str, ptr noundef nonnull @.str.6) #3
  br label %43

25:                                               ; preds = %21
  %26 = load ptr, ptr %1, align 8, !tbaa !17
  %27 = tail call i32 @SUNStepper_SetResetFn(ptr noundef %26, ptr noundef nonnull @arkSUNStepperReset) #3
  %.not36 = icmp eq i32 %27, 0
  br i1 %.not36, label %29, label %28

28:                                               ; preds = %25
  tail call void (ptr, i32, i32, ptr, ptr, ptr, ...) @arkProcessError(ptr noundef nonnull %0, i32 noundef -51, i32 noundef 203, ptr noundef nonnull @__func__.ARKodeCreateSUNStepper, ptr noundef nonnull @.str, ptr noundef nonnull @.str.7) #3
  br label %43

29:                                               ; preds = %25
  %30 = load ptr, ptr %1, align 8, !tbaa !17
  %31 = tail call i32 @SUNStepper_SetStopTimeFn(ptr noundef %30, ptr noundef nonnull @arkSUNStepperSetStopTime) #3
  %.not37 = icmp eq i32 %31, 0
  br i1 %.not37, label %33, label %32

32:                                               ; preds = %29
  tail call void (ptr, i32, i32, ptr, ptr, ptr, ...) @arkProcessError(ptr noundef nonnull %0, i32 noundef -51, i32 noundef 211, ptr noundef nonnull @__func__.ARKodeCreateSUNStepper, ptr noundef nonnull @.str, ptr noundef nonnull @.str.8) #3
  br label %43

33:                                               ; preds = %29
  %34 = load ptr, ptr %1, align 8, !tbaa !17
  %35 = tail call i32 @SUNStepper_SetStepDirectionFn(ptr noundef %34, ptr noundef nonnull @arkSUNStepperSetStepDirection) #3
  %.not38 = icmp eq i32 %35, 0
  br i1 %.not38, label %36, label %43

36:                                               ; preds = %33
  %37 = getelementptr inbounds nuw i8, ptr %0, i64 552
  %38 = load ptr, ptr %37, align 8, !tbaa !19
  %.not39 = icmp eq ptr %38, null
  br i1 %.not39, label %43, label %39

39:                                               ; preds = %36
  %40 = load ptr, ptr %1, align 8, !tbaa !17
  %41 = tail call i32 @SUNStepper_SetForcingFn(ptr noundef %40, ptr noundef nonnull @arkSUNStepperSetForcing) #3
  %.not40 = icmp eq i32 %41, 0
  br i1 %.not40, label %43, label %42

42:                                               ; preds = %39
  tail call void (ptr, i32, i32, ptr, ptr, ptr, ...) @arkProcessError(ptr noundef nonnull %0, i32 noundef -51, i32 noundef 224, ptr noundef nonnull @__func__.ARKodeCreateSUNStepper, ptr noundef nonnull @.str, ptr noundef nonnull @.str.9) #3
  br label %43

43:                                               ; preds = %8, %12, %16, %20, %24, %28, %32, %42, %33, %39, %36, %4
  %.0 = phi i32 [ -21, %4 ], [ -51, %8 ], [ -51, %12 ], [ -51, %16 ], [ -51, %20 ], [ -51, %24 ], [ -51, %28 ], [ -51, %32 ], [ -51, %42 ], [ -51, %33 ], [ 0, %39 ], [ 0, %36 ]
  ret i32 %.0
}